target datalayout = "e-m:e-p270:32:32-p271:32:32-p272:64:64-i64:64-i128:128-f80:128-n8:16:32:64-S128"
target triple = "x86_64-unknown-linux-gnu"

%"class.std::__shared_count" = type { ptr }
%"class.arrow::compute::Expression" = type { %"class.std::shared_ptr.12" }
%"class.std::shared_ptr.12" = type { %"class.std::__shared_ptr.13" }
%"class.std::__shared_ptr.13" = type { ptr, %"class.std::__shared_count" }
%"class.__gnu_cxx::__normal_iterator" = type { ptr }
%"struct.__gnu_cxx::__ops::_Iter_comp_iter" = type { %struct.anon.710 }
%struct.anon.710 = type { i8 }

; Function Attrs: mustprogress nounwind uwtable
define linkonce_odr void @_ZN9__gnu_cxx17__normal_iteratorIPN5arrow7compute10ExpressionESt6vectorIS3_SaIS3_EEEC2ERKS4_(ptr noundef nonnull align 8 dereferenceable(8) %this, ptr noundef nonnull align 8 dereferenceable(8) %__i) unnamed_addr #1 comdat align 2 {
entry:
  %this.addr = alloca ptr, align 8
  %__i.addr = alloca ptr, align 8
  store ptr %this, ptr %this.addr, align 8
  store ptr %__i, ptr %__i.addr, align 8
  %this1 = load ptr, ptr %this.addr, align 8
  %_M_current = getelementptr inbounds %"class.__gnu_cxx::__normal_iterator", ptr %this1, i32 0, i32 0
  %0 = load ptr, ptr %__i.addr, align 8
  %1 = load ptr, ptr %0, align 8
  store ptr %1, ptr %_M_current, align 8
  ret void
}

; Function Attrs: mustprogress nounwind uwtable
define linkonce_odr noundef nonnull align 8 dereferenceable(8) ptr @_ZNK9__gnu_cxx17__normal_iteratorIPN5arrow7compute10ExpressionESt6vectorIS3_SaIS3_EEE4baseEv(ptr noundef nonnull align 8 dereferenceable(8) %this) #1 comdat align 2 {
entry:
  %this.addr = alloca ptr, align 8
  store ptr %this, ptr %this.addr, align 8
  %this1 = load ptr, ptr %this.addr, align 8
  %_M_current = getelementptr inbounds %"class.__gnu_cxx::__normal_iterator", ptr %this1, i32 0, i32 0
  ret ptr %_M_current
}

; Function Attrs: mustprogress nounwind uwtable
define linkonce_odr ptr @_ZNK9__gnu_cxx17__normal_iteratorIPN5arrow7compute10ExpressionESt6vectorIS3_SaIS3_EEEplEl(ptr noundef nonnull align 8 dereferenceable(8) %this, i64 noundef %__n) #1 comdat align 2 {
entry:
  %retval = alloca %"class.__gnu_cxx::__normal_iterator", align 8
  %this.addr = alloca ptr, align 8
  %__n.addr = alloca i64, align 8
  %ref.tmp = alloca ptr, align 8
  store ptr %this, ptr %this.addr, align 8
  store i64 %__n, ptr %__n.addr, align 8
  %this1 = load ptr, ptr %this.addr, align 8
  %_M_current = getelementptr inbounds %"class.__gnu_cxx::__normal_iterator", ptr %this1, i32 0, i32 0
  %0 = load ptr, ptr %_M_current, align 8
  %1 = load i64, ptr %__n.addr, align 8
  %add.ptr = getelementptr inbounds %"class.arrow::compute::Expression", ptr %0, i64 %1
  store ptr %add.ptr, ptr %ref.tmp, align 8
  call void @_ZN9__gnu_cxx17__normal_iteratorIPN5arrow7compute10ExpressionESt6vectorIS3_SaIS3_EEEC2ERKS4_(ptr noundef nonnull align 8 dereferenceable(8) %retval, ptr noundef nonnull align 8 dereferenceable(8) %ref.tmp) #8
  %coerce.dive = getelementptr inbounds %"class.__gnu_cxx::__normal_iterator", ptr %retval, i32 0, i32 0
  %2 = load ptr, ptr %coerce.dive, align 8
  ret ptr %2
}

; Function Attrs: mustprogress nounwind uwtable
define linkonce_odr noundef i64 @_ZN9__gnu_cxxmiIPN5arrow7compute10ExpressionESt6vectorIS3_SaIS3_EEEENS_17__normal_iteratorIT_T0_E15difference_typeERKSB_SE_(ptr noundef nonnull align 8 dereferenceable(8) %__lhs, ptr noundef nonnull align 8 dereferenceable(8) %__rhs) #1 comdat {
entry:
  %__lhs.addr = alloca ptr, align 8
  %__rhs.addr = alloca ptr, align 8
  store ptr %__lhs, ptr %__lhs.addr, align 8
  store ptr %__rhs, ptr %__rhs.addr, align 8
  %0 = load ptr, ptr %__lhs.addr, align 8
  %call = call noundef nonnull align 8 dereferenceable(8) ptr @_ZNK9__gnu_cxx17__normal_iteratorIPN5arrow7compute10ExpressionESt6vectorIS3_SaIS3_EEE4baseEv(ptr noundef nonnull align 8 dereferenceable(8) %0) #8
  %1 = load ptr, ptr %call, align 8
  %2 = load ptr, ptr %__rhs.addr, align 8
  %call1 = call noundef nonnull align 8 dereferenceable(8) ptr @_ZNK9__gnu_cxx17__normal_iteratorIPN5arrow7compute10ExpressionESt6vectorIS3_SaIS3_EEE4baseEv(ptr noundef nonnull align 8 dereferenceable(8) %2) #8
  %3 = load ptr, ptr %call1, align 8
  %sub.ptr.lhs.cast = ptrtoint ptr %1 to i64
  %sub.ptr.rhs.cast = ptrtoint ptr %3 to i64
  %sub.ptr.sub = sub i64 %sub.ptr.lhs.cast, %sub.ptr.rhs.cast
  %sub.ptr.div = sdiv exact i64 %sub.ptr.sub, 16
  ret i64 %sub.ptr.div
}

; Function Attrs: mustprogress uwtable
define internal void @"_ZSt21__inplace_stable_sortIN9__gnu_cxx17__normal_iteratorIPN5arrow7compute10ExpressionESt6vectorIS4_SaIS4_EEEENS0_5__ops15_Iter_comp_iterIZZNS3_12CanonicalizeES4_PNS3_11ExecContextEENK3$_1clES4_E3$_0EEEvT_SH_T0_"(ptr %__first.coerce, ptr %__last.coerce) #0 {
entry:
  %__first = alloca %"class.__gnu_cxx::__normal_iterator", align 8
  %__last = alloca %"class.__gnu_cxx::__normal_iterator", align 8
  %__comp = alloca %"struct.__gnu_cxx::__ops::_Iter_comp_iter", align 1
  %agg.tmp = alloca %"class.__gnu_cxx::__normal_iterator", align 8
  %agg.tmp2 = alloca %"class.__gnu_cxx::__normal_iterator", align 8
  %agg.tmp3 = alloca %"struct.__gnu_cxx::__ops::_Iter_comp_iter", align 1
  %__middle = alloca %"class.__gnu_cxx::__normal_iterator", align 8
  %agg.tmp9 = alloca %"class.__gnu_cxx::__normal_iterator", align 8
  %agg.tmp10 = alloca %"class.__gnu_cxx::__normal_iterator", align 8
  %agg.tmp11 = alloca %"struct.__gnu_cxx::__ops::_Iter_comp_iter", align 1
  %agg.tmp14 = alloca %"class.__gnu_cxx::__normal_iterator", align 8
  %agg.tmp15 = alloca %"class.__gnu_cxx::__normal_iterator", align 8
  %agg.tmp16 = alloca %"struct.__gnu_cxx::__ops::_Iter_comp_iter", align 1
  %agg.tmp19 = alloca %"class.__gnu_cxx::__normal_iterator", align 8
  %agg.tmp20 = alloca %"class.__gnu_cxx::__normal_iterator", align 8
  %agg.tmp21 = alloca %"class.__gnu_cxx::__normal_iterator", align 8
  %agg.tmp24 = alloca %"struct.__gnu_cxx::__ops::_Iter_comp_iter", align 1
  %coerce.dive = getelementptr inbounds %"class.__gnu_cxx::__normal_iterator", ptr %__first, i32 0, i32 0
  store ptr %__first.coerce, ptr %coerce.dive, align 8
  %coerce.dive1 = getelementptr inbounds %"class.__gnu_cxx::__normal_iterator", ptr %__last, i32 0, i32 0
  store ptr %__last.coerce, ptr %coerce.dive1, align 8
  %call = call noundef i64 @_ZN9__gnu_cxxmiIPN5arrow7compute10ExpressionESt6vectorIS3_SaIS3_EEEENS_17__normal_iteratorIT_T0_E15difference_typeERKSB_SE_(ptr noundef nonnull align 8 dereferenceable(8) %__last, ptr noundef nonnull align 8 dereferenceable(8) %__first) #8
  %cmp = icmp slt i64 %call, 15
  br i1 %cmp, label %if.then, label %if.end

if.then:                                          ; preds = %entry
  call void @llvm.memcpy.p0.p0.i64(ptr align 8 %agg.tmp, ptr align 8 %__first, i64 8, i1 false)
  call void @llvm.memcpy.p0.p0.i64(ptr align 8 %agg.tmp2, ptr align 8 %__last, i64 8, i1 false)
  call void @llvm.memcpy.p0.p0.i64(ptr align 1 %agg.tmp3, ptr align 1 %__comp, i64 1, i1 false)
  %coerce.dive4 = getelementptr inbounds %"class.__gnu_cxx::__normal_iterator", ptr %agg.tmp, i32 0, i32 0
  %0 = load ptr, ptr %coerce.dive4, align 8
  %coerce.dive5 = getelementptr inbounds %"class.__gnu_cxx::__normal_iterator", ptr %agg.tmp2, i32 0, i32 0
  %1 = load ptr, ptr %coerce.dive5, align 8
  call void @"_ZSt16__insertion_sortIN9__gnu_cxx17__normal_iteratorIPN5arrow7compute10ExpressionESt6vectorIS4_SaIS4_EEEENS0_5__ops15_Iter_comp_iterIZZNS3_12CanonicalizeES4_PNS3_11ExecContextEENK3$_1clES4_E3$_0EEEvT_SH_T0_"(ptr %0, ptr %1)
  br label %return

if.end:                                           ; preds = %entry
  %call6 = call noundef i64 @_ZN9__gnu_cxxmiIPN5arrow7compute10ExpressionESt6vectorIS3_SaIS3_EEEENS_17__normal_iteratorIT_T0_E15difference_typeERKSB_SE_(ptr noundef nonnull align 8 dereferenceable(8) %__last, ptr noundef nonnull align 8 dereferenceable(8) %__first) #8
  %div = sdiv i64 %call6, 2
  %call7 = call ptr @_ZNK9__gnu_cxx17__normal_iteratorIPN5arrow7compute10ExpressionESt6vectorIS3_SaIS3_EEEplEl(ptr noundef nonnull align 8 dereferenceable(8) %__first, i64 noundef %div) #8
  %coerce.dive8 = getelementptr inbounds %"class.__gnu_cxx::__normal_iterator", ptr %__middle, i32 0, i32 0
  store ptr %call7, ptr %coerce.dive8, align 8
  call void @llvm.memcpy.p0.p0.i64(ptr align 8 %agg.tmp9, ptr align 8 %__first, i64 8, i1 false)
  call void @llvm.memcpy.p0.p0.i64(ptr align 8 %agg.tmp10, ptr align 8 %__middle, i64 8, i1 false)
  call void @llvm.memcpy.p0.p0.i64(ptr align 1 %agg.tmp11, ptr align 1 %__comp, i64 1, i1 false)
  %coerce.dive12 = getelementptr inbounds %"class.__gnu_cxx::__normal_iterator", ptr %agg.tmp9, i32 0, i32 0
  %2 = load ptr, ptr %coerce.dive12, align 8
  %coerce.dive13 = getelementptr inbounds %"class.__gnu_cxx::__normal_iterator", ptr %agg.tmp10, i32 0, i32 0
  %3 = load ptr, ptr %coerce.dive13, align 8
  call void @"_ZSt21__inplace_stable_sortIN9__gnu_cxx17__normal_iteratorIPN5arrow7compute10ExpressionESt6vectorIS4_SaIS4_EEEENS0_5__ops15_Iter_comp_iterIZZNS3_12CanonicalizeES4_PNS3_11ExecContextEENK3$_1clES4_E3$_0EEEvT_SH_T0_"(ptr %2, ptr %3)
  call void @llvm.memcpy.p0.p0.i64(ptr align 8 %agg.tmp14, ptr align 8 %__middle, i64 8, i1 false)
  call void @llvm.memcpy.p0.p0.i64(ptr align 8 %agg.tmp15, ptr align 8 %__last, i64 8, i1 false)
  call void @llvm.memcpy.p0.p0.i64(ptr align 1 %agg.tmp16, ptr align 1 %__comp, i64 1, i1 false)
  %coerce.dive17 = getelementptr inbounds %"class.__gnu_cxx::__normal_iterator", ptr %agg.tmp14, i32 0, i32 0
  %4 = load ptr, ptr %coerce.dive17, align 8
  %coerce.dive18 = getelementptr inbounds %"class.__gnu_cxx::__normal_iterator", ptr %agg.tmp15, i32 0, i32 0
  %5 = load ptr, ptr %coerce.dive18, align 8
  call void @"_ZSt21__inplace_stable_sortIN9__gnu_cxx17__normal_iteratorIPN5arrow7compute10ExpressionESt6vectorIS4_SaIS4_EEEENS0_5__ops15_Iter_comp_iterIZZNS3_12CanonicalizeES4_PNS3_11ExecContextEENK3$_1clES4_E3$_0EEEvT_SH_T0_"(ptr %4, ptr %5)
  call void @llvm.memcpy.p0.p0.i64(ptr align 8 %agg.tmp19, ptr align 8 %__first, i64 8, i1 false)
  call void @llvm.memcpy.p0.p0.i64(ptr align 8 %agg.tmp20, ptr align 8 %__middle, i64 8, i1 false)
  call void @llvm.memcpy.p0.p0.i64(ptr align 8 %agg.tmp21, ptr align 8 %__last, i64 8, i1 false)
  %call22 = call noundef i64 @_ZN9__gnu_cxxmiIPN5arrow7compute10ExpressionESt6vectorIS3_SaIS3_EEEENS_17__normal_iteratorIT_T0_E15difference_typeERKSB_SE_(ptr noundef nonnull align 8 dereferenceable(8) %__middle, ptr noundef nonnull align 8 dereferenceable(8) %__first) #8
  %call23 = call noundef i64 @_ZN9__gnu_cxxmiIPN5arrow7compute10ExpressionESt6vectorIS3_SaIS3_EEEENS_17__normal_iteratorIT_T0_E15difference_typeERKSB_SE_(ptr noundef nonnull align 8 dereferenceable(8) %__last, ptr noundef nonnull align 8 dereferenceable(8) %__middle) #8
  call void @llvm.memcpy.p0.p0.i64(ptr align 1 %agg.tmp24, ptr align 1 %__comp, i64 1, i1 false)
  %coerce.dive25 = getelementptr inbounds %"class.__gnu_cxx::__normal_iterator", ptr %agg.tmp19, i32 0, i32 0
  %6 = load ptr, ptr %coerce.dive25, align 8
  %coerce.dive26 = getelementptr inbounds %"class.__gnu_cxx::__normal_iterator", ptr %agg.tmp20, i32 0, i32 0
  %7 = load ptr, ptr %coerce.dive26, align 8
  %coerce.dive27 = getelementptr inbounds %"class.__gnu_cxx::__normal_iterator", ptr %agg.tmp21, i32 0, i32 0
  %8 = load ptr, ptr %coerce.dive27, align 8
  call void @"_ZSt22__merge_without_bufferIN9__gnu_cxx17__normal_iteratorIPN5arrow7compute10ExpressionESt6vectorIS4_SaIS4_EEEElNS0_5__ops15_Iter_comp_iterIZZNS3_12CanonicalizeES4_PNS3_11ExecContextEENK3$_1clES4_E3$_0EEEvT_SH_SH_T0_SI_T1_"(ptr %6, ptr %7, ptr %8, i64 noundef %call22, i64 noundef %call23)
  br label %return

return:                                           ; preds = %if.end, %if.then
  ret void
}