; Function Attrs: mustprogress uwtable
define internal fastcc void @"_ZSt21__inplace_stable_sortIN9__gnu_cxx17__normal_iteratorIPN5arrow7compute10ExpressionESt6vectorIS4_SaIS4_EEEENS0_5__ops15_Iter_comp_iterIZZNS3_12CanonicalizeES4_PNS3_11ExecContextEENK3$_1clES4_E3$_0EEEvT_SH_T0_"(ptr %__first.coerce, ptr %__last.coerce) unnamed_addr #0 {
entry:
  %sub.ptr.lhs.cast.i = ptrtoint ptr %__last.coerce to i64
  %sub.ptr.rhs.cast.i = ptrtoint ptr %__first.coerce to i64
  %sub.ptr.sub.i = sub i64 %sub.ptr.lhs.cast.i, %sub.ptr.rhs.cast.i
  %sub.ptr.div.i = ashr exact i64 %sub.ptr.sub.i, 4
  %cmp = icmp slt i64 %sub.ptr.div.i, 15
  br i1 %cmp, label %if.then, label %if.end

if.then:                                          ; preds = %entry
  tail call fastcc void @"_ZSt16__insertion_sortIN9__gnu_cxx17__normal_iteratorIPN5arrow7compute10ExpressionESt6vectorIS4_SaIS4_EEEENS0_5__ops15_Iter_comp_iterIZZNS3_12CanonicalizeES4_PNS3_11ExecContextEENK3$_1clES4_E3$_0EEEvT_SH_T0_"(ptr %__first.coerce, ptr %__last.coerce)
  br label %common.ret24

common.ret24:                                     ; preds = %if.end, %if.then
  ret void

if.end:                                           ; preds = %entry
  %div2223 = lshr i64 %sub.ptr.div.i, 1
  %add.ptr.i = getelementptr inbounds %"class.arrow::compute::Expression", ptr %__first.coerce, i64 %div2223
  tail call fastcc void @"_ZSt21__inplace_stable_sortIN9__gnu_cxx17__normal_iteratorIPN5arrow7compute10ExpressionESt6vectorIS4_SaIS4_EEEENS0_5__ops15_Iter_comp_iterIZZNS3_12CanonicalizeES4_PNS3_11ExecContextEENK3$_1clES4_E3$_0EEEvT_SH_T0_"(ptr %__first.coerce, ptr %add.ptr.i)
  tail call fastcc void @"_ZSt21__inplace_stable_sortIN9__gnu_cxx17__normal_iteratorIPN5arrow7compute10ExpressionESt6vectorIS4_SaIS4_EEEENS0_5__ops15_Iter_comp_iterIZZNS3_12CanonicalizeES4_PNS3_11ExecContextEENK3$_1clES4_E3$_0EEEvT_SH_T0_"(ptr %add.ptr.i, ptr %__last.coerce)
  %sub.ptr.lhs.cast.i8 = ptrtoint ptr %add.ptr.i to i64
  %sub.ptr.sub.i14 = sub i64 %sub.ptr.lhs.cast.i, %sub.ptr.lhs.cast.i8
  %sub.ptr.div.i15 = ashr exact i64 %sub.ptr.sub.i14, 4
  tail call fastcc void @"_ZSt22__merge_without_bufferIN9__gnu_cxx17__normal_iteratorIPN5arrow7compute10ExpressionESt6vectorIS4_SaIS4_EEEElNS0_5__ops15_Iter_comp_iterIZZNS3_12CanonicalizeES4_PNS3_11ExecContextEENK3$_1clES4_E3$_0EEEvT_SH_SH_T0_SI_T1_"(ptr %__first.coerce, ptr %add.ptr.i, ptr %__last.coerce, i64 noundef %div2223, i64 noundef %sub.ptr.div.i15)
  br label %common.ret24
}